target datalayout = "e-m:e-p270:32:32-p271:32:32-p272:64:64-i64:64-i128:128-f80:128-n8:16:32:64-S128"
target triple = "x86_64-pc-linux-gnu"

@.str = private unnamed_addr constant [130 x i8] c"generated/home/dtcxzyw/WorkSpace/Projects/compilers/llvm-opt-benchmark/bench/lief/bench_build/mbed_src/library/ssl_tls12_client.c\00", align 1
@.str.93 = private unnamed_addr constant [59 x i8] c"bad server key exchange message (psk_identity_hint length)\00", align 1

; Function Attrs: alwaysinline nounwind uwtable
define internal zeroext i16 @mbedtls_get_unaligned_uint16(ptr noundef %0) #4 {
  %2 = alloca ptr, align 8
  %3 = alloca i16, align 2
  store ptr %0, ptr %2, align 8, !tbaa !88
  call void @llvm.lifetime.start.p0(i64 2, ptr %3) #11
  %4 = load ptr, ptr %2, align 8, !tbaa !88
  call void @llvm.memcpy.p0.p0.i64(ptr align 2 %3, ptr align 1 %4, i64 2, i1 false)
  %5 = load i16, ptr %3, align 2, !tbaa !92
  call void @llvm.lifetime.end.p0(i64 2, ptr %3) #11
  ret i16 %5
}

; Function Attrs: nounwind uwtable
define internal i32 @ssl_parse_server_psk_hint(ptr noundef %0, ptr noundef %1, ptr noundef %2) #0 {
  %4 = alloca i32, align 4
  %5 = alloca ptr, align 8
  %6 = alloca ptr, align 8
  %7 = alloca ptr, align 8
  %8 = alloca i32, align 4
  %9 = alloca i16, align 2
  %10 = alloca i32, align 4
  store ptr %0, ptr %5, align 8, !tbaa !3
  store ptr %1, ptr %6, align 8, !tbaa !125
  store ptr %2, ptr %7, align 8, !tbaa !8
  call void @llvm.lifetime.start.p0(i64 4, ptr %8) #11
  store i32 -28800, ptr %8, align 4, !tbaa !10
  call void @llvm.lifetime.start.p0(i64 2, ptr %9) #11
  %11 = load ptr, ptr %7, align 8, !tbaa !8
  %12 = load ptr, ptr %6, align 8, !tbaa !125
  %13 = load ptr, ptr %12, align 8, !tbaa !8
  %14 = ptrtoint ptr %11 to i64
  %15 = ptrtoint ptr %13 to i64
  %16 = sub i64 %14, %15
  %17 = icmp slt i64 %16, 2
  br i1 %17, label %18, label %20

18:                                               ; preds = %3
  %19 = load ptr, ptr %5, align 8, !tbaa !3
  call void (ptr, i32, ptr, i32, ptr, ...) @mbedtls_debug_print_msg(ptr noundef %19, i32 noundef 1, ptr noundef @.str, i32 noundef 1882, ptr noundef @.str.93)
  store i32 -29440, ptr %4, align 4
  store i32 1, ptr %10, align 4
  br label %50

20:                                               ; preds = %3
  %21 = load ptr, ptr %6, align 8, !tbaa !125
  %22 = load ptr, ptr %21, align 8, !tbaa !8
  %23 = getelementptr inbounds i8, ptr %22, i64 0
  %24 = call zeroext i16 @mbedtls_get_unaligned_uint16(ptr noundef %23)
  %25 = call i16 @llvm.bswap.i16(i16 %24)
  %26 = zext i16 %25 to i32
  %27 = trunc i32 %26 to i16
  store i16 %27, ptr %9, align 2, !tbaa !92
  %28 = load ptr, ptr %6, align 8, !tbaa !125
  %29 = load ptr, ptr %28, align 8, !tbaa !8
  %30 = getelementptr inbounds i8, ptr %29, i64 2
  store ptr %30, ptr %28, align 8, !tbaa !8
  %31 = load ptr, ptr %7, align 8, !tbaa !8
  %32 = load ptr, ptr %6, align 8, !tbaa !125
  %33 = load ptr, ptr %32, align 8, !tbaa !8
  %34 = ptrtoint ptr %31 to i64
  %35 = ptrtoint ptr %33 to i64
  %36 = sub i64 %34, %35
  %37 = load i16, ptr %9, align 2, !tbaa !92
  %38 = zext i16 %37 to i64
  %39 = icmp slt i64 %36, %38
  br i1 %39, label %40, label %42

40:                                               ; preds = %20
  %41 = load ptr, ptr %5, align 8, !tbaa !3
  call void (ptr, i32, ptr, i32, ptr, ...) @mbedtls_debug_print_msg(ptr noundef %41, i32 noundef 1, ptr noundef @.str, i32 noundef 1890, ptr noundef @.str.93)
  store i32 -29440, ptr %4, align 4
  store i32 1, ptr %10, align 4
  br label %50

42:                                               ; preds = %20
  %43 = load i16, ptr %9, align 2, !tbaa !92
  %44 = zext i16 %43 to i32
  %45 = load ptr, ptr %6, align 8, !tbaa !125
  %46 = load ptr, ptr %45, align 8, !tbaa !8
  %47 = sext i32 %44 to i64
  %48 = getelementptr inbounds i8, ptr %46, i64 %47
  store ptr %48, ptr %45, align 8, !tbaa !8
  store i32 0, ptr %8, align 4, !tbaa !10
  %49 = load i32, ptr %8, align 4, !tbaa !10
  store i32 %49, ptr %4, align 4
  store i32 1, ptr %10, align 4
  br label %50

50:                                               ; preds = %42, %40, %18
  call void @llvm.lifetime.end.p0(i64 2, ptr %9) #11
  call void @llvm.lifetime.end.p0(i64 4, ptr %8) #11
  %51 = load i32, ptr %4, align 4
  ret i32 %51
}