; Function Attrs: nounwind uwtable
define internal fastcc range(i32 -29440, 1) i32 @ssl_parse_server_psk_hint(ptr noundef %0, ptr noundef nonnull captures(none) %1, ptr noundef %2) unnamed_addr #0 {
  %4 = load ptr, ptr %1, align 8, !tbaa !84
  %5 = ptrtoint ptr %2 to i64
  %6 = ptrtoint ptr %4 to i64
  %7 = sub i64 %5, %6
  %8 = icmp slt i64 %7, 2
  br i1 %8, label %9, label %10

9:                                                ; preds = %3
  tail call void (ptr, i32, ptr, i32, ptr, ...) @mbedtls_debug_print_msg(ptr noundef %0, i32 noundef 1, ptr noundef nonnull @.str, i32 noundef 1882, ptr noundef nonnull @.str.93) #14
  br label %20

10:                                               ; preds = %3
  %.0.copyload.i = load i16, ptr %4, align 1
  %11 = tail call i16 @llvm.bswap.i16(i16 %.0.copyload.i)
  %12 = getelementptr inbounds nuw i8, ptr %4, i64 2
  store ptr %12, ptr %1, align 8, !tbaa !84
  %13 = ptrtoint ptr %12 to i64
  %14 = sub i64 %5, %13
  %15 = zext i16 %11 to i64
  %16 = icmp slt i64 %14, %15
  br i1 %16, label %17, label %18

17:                                               ; preds = %10
  tail call void (ptr, i32, ptr, i32, ptr, ...) @mbedtls_debug_print_msg(ptr noundef %0, i32 noundef 1, ptr noundef nonnull @.str, i32 noundef 1890, ptr noundef nonnull @.str.93) #14
  br label %20

18:                                               ; preds = %10
  %19 = getelementptr inbounds nuw i8, ptr %12, i64 %15
  store ptr %19, ptr %1, align 8, !tbaa !84
  br label %20

20:                                               ; preds = %18, %17, %9
  %.0 = phi i32 [ -29440, %9 ], [ -29440, %17 ], [ 0, %18 ]
  ret i32 %.0
}